target datalayout = "e-m:e-p270:32:32-p271:32:32-p272:64:64-i64:64-i128:128-f80:128-n8:16:32:64-S128"
target triple = "x86_64-pc-linux-gnu"

%class.dtObstacleAvoidanceDebugData = type { i32, i32, ptr, ptr, ptr, ptr, ptr, ptr, ptr }

@.str = private unnamed_addr constant [11 x i8] c"maxSamples\00", align 1
@.str.1 = private unnamed_addr constant [158 x i8] c"generated/home/dtcxzyw/WorkSpace/Projects/compilers/llvm-opt-benchmark/bench/recastnavigation/recastnavigation/DetourCrowd/Source/DetourObstacleAvoidance.cpp\00", align 1

; Function Attrs: mustprogress uwtable
define noundef zeroext i1 @_ZN28dtObstacleAvoidanceDebugData4initEi(ptr noundef nonnull align 8 dereferenceable(64) %0, i32 noundef %1) #0 align 2 {
  %3 = alloca i1, align 1
  %4 = alloca ptr, align 8
  %5 = alloca i32, align 4
  %6 = alloca ptr, align 8
  store ptr %0, ptr %4, align 8
  store i32 %1, ptr %5, align 4
  %7 = load ptr, ptr %4, align 8
  %8 = call noundef ptr @_Z21dtAssertFailGetCustomv()
  store ptr %8, ptr %6, align 8
  %9 = load ptr, ptr %6, align 8
  %10 = icmp eq ptr %9, null
  br i1 %10, label %11, label %12

11:                                               ; preds = %2
  br label %18

12:                                               ; preds = %2
  %13 = load i32, ptr %5, align 4
  %14 = icmp ne i32 %13, 0
  br i1 %14, label %17, label %15

15:                                               ; preds = %12
  %16 = load ptr, ptr %6, align 8
  call void %16(ptr noundef @.str, ptr noundef @.str.1, i32 noundef 113)
  br label %17

17:                                               ; preds = %15, %12
  br label %18

18:                                               ; preds = %17, %11
  %19 = load i32, ptr %5, align 4
  %20 = getelementptr inbounds %class.dtObstacleAvoidanceDebugData, ptr %7, i32 0, i32 1
  store i32 %19, ptr %20, align 4
  %21 = getelementptr inbounds %class.dtObstacleAvoidanceDebugData, ptr %7, i32 0, i32 1
  %22 = load i32, ptr %21, align 4
  %23 = sext i32 %22 to i64
  %24 = mul i64 12, %23
  %25 = call noundef ptr @_Z7dtAllocm11dtAllocHint(i64 noundef %24, i32 noundef 0)
  %26 = getelementptr inbounds %class.dtObstacleAvoidanceDebugData, ptr %7, i32 0, i32 2
  store ptr %25, ptr %26, align 8
  %27 = getelementptr inbounds %class.dtObstacleAvoidanceDebugData, ptr %7, i32 0, i32 2
  %28 = load ptr, ptr %27, align 8
  %29 = icmp ne ptr %28, null
  br i1 %29, label %31, label %30

30:                                               ; preds = %18
  store i1 false, ptr %3, align 1
  br label %98

31:                                               ; preds = %18
  %32 = getelementptr inbounds %class.dtObstacleAvoidanceDebugData, ptr %7, i32 0, i32 1
  %33 = load i32, ptr %32, align 4
  %34 = sext i32 %33 to i64
  %35 = mul i64 4, %34
  %36 = call noundef ptr @_Z7dtAllocm11dtAllocHint(i64 noundef %35, i32 noundef 0)
  %37 = getelementptr inbounds %class.dtObstacleAvoidanceDebugData, ptr %7, i32 0, i32 4
  store ptr %36, ptr %37, align 8
  %38 = getelementptr inbounds %class.dtObstacleAvoidanceDebugData, ptr %7, i32 0, i32 4
  %39 = load ptr, ptr %38, align 8
  %40 = icmp ne ptr %39, null
  br i1 %40, label %42, label %41

41:                                               ; preds = %31
  store i1 false, ptr %3, align 1
  br label %98

42:                                               ; preds = %31
  %43 = getelementptr inbounds %class.dtObstacleAvoidanceDebugData, ptr %7, i32 0, i32 1
  %44 = load i32, ptr %43, align 4
  %45 = sext i32 %44 to i64
  %46 = mul i64 4, %45
  %47 = call noundef ptr @_Z7dtAllocm11dtAllocHint(i64 noundef %46, i32 noundef 0)
  %48 = getelementptr inbounds %class.dtObstacleAvoidanceDebugData, ptr %7, i32 0, i32 3
  store ptr %47, ptr %48, align 8
  %49 = getelementptr inbounds %class.dtObstacleAvoidanceDebugData, ptr %7, i32 0, i32 3
  %50 = load ptr, ptr %49, align 8
  %51 = icmp ne ptr %50, null
  br i1 %51, label %53, label %52

52:                                               ; preds = %42
  store i1 false, ptr %3, align 1
  br label %98

53:                                               ; preds = %42
  %54 = getelementptr inbounds %class.dtObstacleAvoidanceDebugData, ptr %7, i32 0, i32 1
  %55 = load i32, ptr %54, align 4
  %56 = sext i32 %55 to i64
  %57 = mul i64 4, %56
  %58 = call noundef ptr @_Z7dtAllocm11dtAllocHint(i64 noundef %57, i32 noundef 0)
  %59 = getelementptr inbounds %class.dtObstacleAvoidanceDebugData, ptr %7, i32 0, i32 5
  store ptr %58, ptr %59, align 8
  %60 = getelementptr inbounds %class.dtObstacleAvoidanceDebugData, ptr %7, i32 0, i32 5
  %61 = load ptr, ptr %60, align 8
  %62 = icmp ne ptr %61, null
  br i1 %62, label %64, label %63

63:                                               ; preds = %53
  store i1 false, ptr %3, align 1
  br label %98

64:                                               ; preds = %53
  %65 = getelementptr inbounds %class.dtObstacleAvoidanceDebugData, ptr %7, i32 0, i32 1
  %66 = load i32, ptr %65, align 4
  %67 = sext i32 %66 to i64
  %68 = mul i64 4, %67
  %69 = call noundef ptr @_Z7dtAllocm11dtAllocHint(i64 noundef %68, i32 noundef 0)
  %70 = getelementptr inbounds %class.dtObstacleAvoidanceDebugData, ptr %7, i32 0, i32 6
  store ptr %69, ptr %70, align 8
  %71 = getelementptr inbounds %class.dtObstacleAvoidanceDebugData, ptr %7, i32 0, i32 6
  %72 = load ptr, ptr %71, align 8
  %73 = icmp ne ptr %72, null
  br i1 %73, label %75, label %74

74:                                               ; preds = %64
  store i1 false, ptr %3, align 1
  br label %98

75:                                               ; preds = %64
  %76 = getelementptr inbounds %class.dtObstacleAvoidanceDebugData, ptr %7, i32 0, i32 1
  %77 = load i32, ptr %76, align 4
  %78 = sext i32 %77 to i64
  %79 = mul i64 4, %78
  %80 = call noundef ptr @_Z7dtAllocm11dtAllocHint(i64 noundef %79, i32 noundef 0)
  %81 = getelementptr inbounds %class.dtObstacleAvoidanceDebugData, ptr %7, i32 0, i32 7
  store ptr %80, ptr %81, align 8
  %82 = getelementptr inbounds %class.dtObstacleAvoidanceDebugData, ptr %7, i32 0, i32 7
  %83 = load ptr, ptr %82, align 8
  %84 = icmp ne ptr %83, null
  br i1 %84, label %86, label %85

85:                                               ; preds = %75
  store i1 false, ptr %3, align 1
  br label %98

86:                                               ; preds = %75
  %87 = getelementptr inbounds %class.dtObstacleAvoidanceDebugData, ptr %7, i32 0, i32 1
  %88 = load i32, ptr %87, align 4
  %89 = sext i32 %88 to i64
  %90 = mul i64 4, %89
  %91 = call noundef ptr @_Z7dtAllocm11dtAllocHint(i64 noundef %90, i32 noundef 0)
  %92 = getelementptr inbounds %class.dtObstacleAvoidanceDebugData, ptr %7, i32 0, i32 8
  store ptr %91, ptr %92, align 8
  %93 = getelementptr inbounds %class.dtObstacleAvoidanceDebugData, ptr %7, i32 0, i32 8
  %94 = load ptr, ptr %93, align 8
  %95 = icmp ne ptr %94, null
  br i1 %95, label %97, label %96

96:                                               ; preds = %86
  store i1 false, ptr %3, align 1
  br label %98

97:                                               ; preds = %86
  store i1 true, ptr %3, align 1
  br label %98

98:                                               ; preds = %97, %96, %85, %74, %63, %52, %41, %30
  %99 = load i1, ptr %3, align 1
  ret i1 %99
}