; Function Attrs: mustprogress uwtable
define noundef zeroext i1 @_ZN28dtObstacleAvoidanceDebugData4initEi(ptr noundef nonnull align 8 captures(none) dereferenceable(64) initializes((4, 16)) %0, i32 noundef %1) local_unnamed_addr #0 align 2 {
  %3 = tail call noundef ptr @_Z21dtAssertFailGetCustomv()
  %4 = icmp eq ptr %3, null
  %5 = icmp ne i32 %1, 0
  %or.cond = or i1 %5, %4
  br i1 %or.cond, label %7, label %6

6:                                                ; preds = %2
  tail call void %3(ptr noundef nonnull @.str, ptr noundef nonnull @.str.1, i32 noundef 113)
  br label %7

7:                                                ; preds = %6, %2
  %8 = getelementptr inbounds nuw i8, ptr %0, i64 4
  store i32 %1, ptr %8, align 4
  %9 = sext i32 %1 to i64
  %10 = mul nsw i64 %9, 12
  %11 = tail call noundef ptr @_Z7dtAllocm11dtAllocHint(i64 noundef %10, i32 noundef 0)
  %12 = getelementptr inbounds nuw i8, ptr %0, i64 8
  store ptr %11, ptr %12, align 8
  %.not = icmp eq ptr %11, null
  br i1 %.not, label %49, label %13

13:                                               ; preds = %7
  %14 = load i32, ptr %8, align 4
  %15 = sext i32 %14 to i64
  %16 = shl nsw i64 %15, 2
  %17 = tail call noundef ptr @_Z7dtAllocm11dtAllocHint(i64 noundef %16, i32 noundef 0)
  %18 = getelementptr inbounds nuw i8, ptr %0, i64 24
  store ptr %17, ptr %18, align 8
  %.not7 = icmp eq ptr %17, null
  br i1 %.not7, label %49, label %19

19:                                               ; preds = %13
  %20 = load i32, ptr %8, align 4
  %21 = sext i32 %20 to i64
  %22 = shl nsw i64 %21, 2
  %23 = tail call noundef ptr @_Z7dtAllocm11dtAllocHint(i64 noundef %22, i32 noundef 0)
  %24 = getelementptr inbounds nuw i8, ptr %0, i64 16
  store ptr %23, ptr %24, align 8
  %.not8 = icmp eq ptr %23, null
  br i1 %.not8, label %49, label %25

25:                                               ; preds = %19
  %26 = load i32, ptr %8, align 4
  %27 = sext i32 %26 to i64
  %28 = shl nsw i64 %27, 2
  %29 = tail call noundef ptr @_Z7dtAllocm11dtAllocHint(i64 noundef %28, i32 noundef 0)
  %30 = getelementptr inbounds nuw i8, ptr %0, i64 32
  store ptr %29, ptr %30, align 8
  %.not9 = icmp eq ptr %29, null
  br i1 %.not9, label %49, label %31

31:                                               ; preds = %25
  %32 = load i32, ptr %8, align 4
  %33 = sext i32 %32 to i64
  %34 = shl nsw i64 %33, 2
  %35 = tail call noundef ptr @_Z7dtAllocm11dtAllocHint(i64 noundef %34, i32 noundef 0)
  %36 = getelementptr inbounds nuw i8, ptr %0, i64 40
  store ptr %35, ptr %36, align 8
  %.not10 = icmp eq ptr %35, null
  br i1 %.not10, label %49, label %37

37:                                               ; preds = %31
  %38 = load i32, ptr %8, align 4
  %39 = sext i32 %38 to i64
  %40 = shl nsw i64 %39, 2
  %41 = tail call noundef ptr @_Z7dtAllocm11dtAllocHint(i64 noundef %40, i32 noundef 0)
  %42 = getelementptr inbounds nuw i8, ptr %0, i64 48
  store ptr %41, ptr %42, align 8
  %.not11 = icmp eq ptr %41, null
  br i1 %.not11, label %49, label %43

43:                                               ; preds = %37
  %44 = load i32, ptr %8, align 4
  %45 = sext i32 %44 to i64
  %46 = shl nsw i64 %45, 2
  %47 = tail call noundef ptr @_Z7dtAllocm11dtAllocHint(i64 noundef %46, i32 noundef 0)
  %48 = getelementptr inbounds nuw i8, ptr %0, i64 56
  store ptr %47, ptr %48, align 8
  %.not12 = icmp ne ptr %47, null
  br label %49

49:                                               ; preds = %43, %37, %31, %25, %19, %13, %7
  %.0 = phi i1 [ false, %7 ], [ false, %13 ], [ false, %19 ], [ false, %25 ], [ false, %31 ], [ false, %37 ], [ %.not12, %43 ]
  ret i1 %.0
}